; Function Attrs: nounwind uwtable
define hidden void @_PyTuple_DebugMallocStats(ptr noundef %0) local_unnamed_addr #0 {
  %2 = alloca [128 x i8], align 16
  %3 = tail call align 8 ptr @llvm.threadlocal.address.p0(ptr align 8 @_Py_tss_tstate)
  br label %5

4:                                                ; preds = %5
  ret void

5:                                                ; preds = %1, %5
  %indvars.iv = phi i64 [ 0, %1 ], [ %indvars.iv.next, %5 ]
  %indvars.iv.next = add nuw nsw i64 %indvars.iv, 1
  call void @llvm.lifetime.start.p0(i64 128, ptr nonnull %2) #9
  %6 = trunc nuw nsw i64 %indvars.iv.next to i32
  %7 = call i32 (ptr, i64, ptr, ...) @PyOS_snprintf(ptr noundef nonnull %2, i64 noundef 128, ptr noundef nonnull @.str.6, i32 noundef %6) #9
  %8 = load ptr, ptr %3, align 8, !tbaa !4
  %9 = getelementptr inbounds nuw i8, ptr %8, i64 16
  %10 = load ptr, ptr %9, align 8, !tbaa !9
  %11 = shl nuw nsw i64 %indvars.iv, 4
  %12 = getelementptr i8, ptr %10, i64 11072
  %13 = getelementptr i8, ptr %12, i64 %11
  %14 = load i64, ptr %13, align 8, !tbaa !24
  %15 = trunc i64 %14 to i32
  %16 = load i64, ptr getelementptr inbounds nuw (i8, ptr @PyTuple_Type, i64 32), align 8, !tbaa !133
  %17 = load i64, ptr getelementptr inbounds nuw (i8, ptr @PyTuple_Type, i64 40), align 8, !tbaa !134
  %18 = mul i64 %17, %indvars.iv.next
  %19 = add i64 %16, 7
  %20 = add i64 %19, %18
  %21 = and i64 %20, -8
  call void @_PyDebugAllocatorStats(ptr noundef %0, ptr noundef nonnull %2, i32 noundef %15, i64 noundef %21) #9
  call void @llvm.lifetime.end.p0(i64 128, ptr nonnull %2) #9
  %exitcond.not = icmp eq i64 %indvars.iv.next, 20
  br i1 %exitcond.not, label %4, label %5, !llvm.loop !135
}